Certificate:
    Data:
        Version: 3 (0x2)
        Serial Number: 11655387826087084371 (0xa1c0417995554153)
    Signature Algorithm: sha256WithRSAEncryption
        Issuer: C=JP, O=Example, Inc., OU=Example Unit, CN=MyCompany
        Validity
            Not Before: Jul 30 14:00:56 2018 GMT
            Not After : Jul 27 14:00:56 2028 GMT
        Subject: C=JP, O=Example, Inc., OU=Example Unit, CN=MyCompany
        Subject Public Key Info:
            Public Key Algorithm: rsaEncryption
                Public-Key: (2048 bit)
                Modulus:
                    00:bc:25:30:6b:c6:0e:52:a8:aa:0b:2e:14:2b:b7:
                    b7:99:e5:40:8b:50:77:b8:85:90:9a:a6:49:c6:f5:
                    a2:b6:b1:ef:eb:61:45:07:aa:31:7d:14:3d:96:7c:
                    70:79:4e:62:a8:02:a9:4b:d3:33:3d:37:f4:88:2c:
                    1f:2f:a2:d2:9a:4f:08:4f:60:08:1b:4e:e9:22:a4:
                    69:2e:ac:af:15:4f:97:db:99:52:3b:7f:06:80:af:
                    ee:32:b6:18:2a:0b:60:0f:e4:1e:7c:79:86:3d:7f:
                    dd:41:50:60:c0:bf:e2:83:97:36:7f:f6:f4:3e:da:
                    80:46:a3:e0:ab:e9:5f:e8:fb:8c:94:bc:61:3f:14:
                    4b:14:d0:36:54:01:6b:ee:70:e9:a1:ef:42:ff:02:
                    d0:27:51:02:68:d3:8f:e9:92:17:71:ee:0d:b6:fb:
                    2e:c2:10:b2:09:6b:f6:15:32:9d:e7:29:4b:0a:ed:
                    31:07:9c:50:a7:d1:18:60:74:00:1b:2b:57:06:d6:
                    a1:b1:c2:83:b7:c3:4c:22:bd:8c:cb:a7:27:e9:53:
                    33:dd:91:6a:0c:5c:ee:60:62:ab:5b:56:fc:37:41:
                    94:99:7b:96:b3:8b:85:2f:52:6d:ce:2e:99:6d:38:
                    9e:a2:57:d4:04:34:31:ea:19:d2:ef:50:eb:7a:5c:
                    8b:9f
                Exponent: 65537 (0x10001)
        X509v3 extensions:
            X509v3 Basic Constraints: critical
                CA:TRUE
            X509v3 Key Usage: critical
                Certificate Sign, CRL Sign
            X509v3 Subject Key Identifier: 
                2D:17:FE:A6:A4:54:B8:2A:DD:71:0D:5E:6D:E7:BD:FE:56:BF:FC:D2
    Signature Algorithm: sha256WithRSAEncryption
         61:8b:1d:c4:17:1d:39:c7:9e:63:a5:37:29:0c:b6:a1:43:28:
         57:ad:4c:0a:a8:37:a0:63:b8:0a:4c:9b:e5:3c:28:e6:ad:1f:
         8a:d7:e5:cd:d7:cf:41:94:bd:eb:e7:e6:ec:e6:05:71:aa:a3:
         ff:b1:ac:52:d2:ce:66:10:66:3d:28:c4:d9:2e:10:d0:e2:d8:
         06:1c:17:51:fd:68:e9:9f:a4:29:ce:1a:4f:97:bf:04:af:1b:
         cf:cc:48:bd:45:d7:02:73:28:90:5c:7a:ec:f2:9c:f6:6f:a9:
         db:13:09:35:ac:05:b6:89:52:00:96:a7:2a:03:ab:b0:ac:57:
         42:c7:d6:eb:a8:34:6b:28:69:04:a2:82:77:8d:3d:a0:10:b5:
         a4:56:b0:97:ca:90:58:c4:be:b9:1a:d9:8a:ed:36:42:c1:2f:
         90:8b:00:7b:f2:69:1b:43:f8:c5:98:31:b7:e8:ac:f6:1e:f1:
         fa:3a:21:84:7c:61:2d:23:8e:c6:4d:24:ed:f9:3a:a7:b1:61:
         23:19:b3:2e:02:19:92:bb:88:4d:b5:a6:a4:be:55:20:c9:0e:
         d5:d6:37:e3:88:6a:40:f4:a0:be:7b:0a:ba:e9:87:08:cb:ae:
         0d:1d:a2:e0:6b:84:35:90:e3:80:53:c8:83:e8:68:8e:8a:e2:
         84:c3:cf:71
-----BEGIN CERTIFICATE-----
MIIDZTCCAk2gAwIBAgIJAKHAQXmVVUFTMA0GCSqGSIb3DQEBCwUAMFAxCzAJBgNV
BAYTAkpQMRYwFAYDVQQKDA1FeGFtcGxlLCBJbmMuMRUwEwYDVQQLDAxFeGFtcGxl
IFVuaXQxEjAQBgNVBAMMCU15Q29tcGFueTAeFw0xODA3MzAxNDAwNTZaFw0yODA3
MjcxNDAwNTZaMFAxCzAJBgNVBAYTAkpQMRYwFAYDVQQKDA1FeGFtcGxlLCBJbmMu
MRUwEwYDVQQLDAxFeGFtcGxlIFVuaXQxEjAQBgNVBAMMCU15Q29tcGFueTCCASIw
DQYJKoZIhvcNAQEBBQADggEPADCCAQoCggEBALwlMGvGDlKoqgsuFCu3t5nlQItQ
d7iFkJqmScb1orax7+thRQeqMX0UPZZ8cHlOYqgCqUvTMz039IgsHy+i0ppPCE9g
CBtO6SKkaS6srxVPl9uZUjt/BoCv7jK2GCoLYA/kHnx5hj1/3UFQYMC/4oOXNn/2
9D7agEaj4KvpX+j7jJS8YT8USxTQNlQBa+5w6aHvQv8C0CdRAmjTj+mSF3HuDbb7
LsIQsglr9hUynecpSwrtMQecUKfRGGB0ABsrVwbWobHCg7fDTCK9jMunJ+lTM92R
agxc7mBiq1tW/DdBlJl7lrOLhS9Sbc4umW04nqJX1AQ0MeoZ0u9Q63pci58CAwEA
AaNCMEAwDwYDVR0TAQH/BAUwAwEB/zAOBgNVHQ8BAf8EBAMCAQYwHQYDVR0OBBYE
FC0X/qakVLgq3XENXm3nvf5Wv/zSMA0GCSqGSIb3DQEBCwUAA4IBAQBhix3EFx05
x55jpTcpDLahQyhXrUwKqDegY7gKTJvlPCjmrR+K1+XN189BlL3r5+bs5gVxqqP/
saxS0s5mEGY9KMTZLhDQ4tgGHBdR/Wjpn6QpzhpPl78ErxvPzEi9RdcCcyiQXHrs
8pz2b6nbEwk1rAW2iVIAlqcqA6uwrFdCx9brqDRrKGkEooJ3jT2gELWkVrCXypBY
xL65GtmK7TZCwS+QiwB78mkbQ/jFmDG36Kz2HvH6OiGEfGEtI47GTSTt+TqnsWEj
GbMuAhmSu4hNtaakvlUgyQ7V1jfjiGpA9KC+ewq66YcIy64NHaLga4Q1kOOAU8iD
6GiOiuKEw89x
-----END CERTIFICATE-----
