Certificate:
    Data:
        Version: 3 (0x2)
        Serial Number: 11655387826087084372 (0xa1c0417995554154)
    Signature Algorithm: sha256WithRSAEncryption
        Issuer: C=JP, O=Example, Inc., OU=Example Unit, CN=MyCompany
        Validity
            Not Before: Jul 30 14:02:08 2018 GMT
            Not After : Jul 27 14:02:08 2028 GMT
        Subject: C=JP, O=Example, Inc., OU=Example Unit, CN=MyCompanyServer
        Subject Public Key Info:
            Public Key Algorithm: rsaEncryption
                Public-Key: (2048 bit)
                Modulus:
                    00:d2:27:46:20:c6:e6:1d:6b:65:78:2a:d1:c7:be:
                    08:e5:fa:b4:e3:8a:7c:61:a0:42:8b:79:df:a3:54:
                    c4:0e:a6:2a:33:a9:eb:ba:a1:15:3c:b6:86:ce:c1:
                    ac:7b:fb:71:de:55:f0:95:26:73:bf:1c:69:42:19:
                    8a:6c:b3:2c:71:90:4b:2f:13:0b:91:fa:df:43:df:
                    5d:ef:09:f2:a5:69:87:9f:f7:b5:43:c4:2a:60:41:
                    d0:a8:8c:61:fa:cc:02:b1:fc:3e:b0:da:74:7d:c9:
                    1e:e3:b5:d8:03:7d:62:4a:68:26:0a:72:9c:dd:9f:
                    e2:1f:97:5e:3f:5d:66:a3:83:1c:ac:e0:7e:28:2d:
                    46:1d:2d:cf:cb:ad:27:04:95:14:f4:42:c5:b8:15:
                    92:b6:6c:72:14:cc:ed:52:75:6f:66:01:cb:62:b9:
                    f5:c6:10:af:31:d8:39:d8:64:d8:13:2a:97:8c:34:
                    c1:83:f0:3f:20:1a:6c:5d:c5:03:c9:bb:f3:53:b8:
                    e7:12:a5:f0:94:f8:19:b2:8f:88:ae:41:ce:ff:19:
                    0b:cc:c8:fd:6b:d3:11:19:cf:a6:86:3f:d5:fb:ed:
                    38:a2:da:9f:71:0d:e3:c0:94:77:8c:53:7f:2c:ea:
                    b9:f4:ed:1b:cc:68:53:84:4d:11:51:f0:21:51:39:
                    bd:bf
                Exponent: 65537 (0x10001)
        X509v3 extensions:
            X509v3 Basic Constraints: critical
                CA:FALSE
            X509v3 Extended Key Usage: 
                TLS Web Client Authentication, TLS Web Server Authentication
            X509v3 Key Usage: critical
                Digital Signature, Key Encipherment
            Netscape Cert Type: 
                SSL Server
            X509v3 Subject Key Identifier: 
                27:A7:AB:77:22:8A:FB:FC:53:5D:CC:31:E6:63:EC:CD:56:C4:9C:01
            X509v3 Authority Key Identifier: 
                keyid:2D:17:FE:A6:A4:54:B8:2A:DD:71:0D:5E:6D:E7:BD:FE:56:BF:FC:D2

    Signature Algorithm: sha256WithRSAEncryption
         4a:fe:2d:c8:33:55:8c:2d:ba:26:34:f6:e7:83:7e:d5:e2:7d:
         fa:02:79:09:0d:4b:9e:90:df:67:a3:99:b5:34:b1:01:03:a1:
         76:29:9c:62:72:ab:64:d3:36:ff:eb:24:57:e7:f0:3f:eb:fc:
         8c:a5:56:4a:a1:77:78:72:26:2a:02:6c:52:e5:2e:ca:01:55:
         9a:08:1c:1b:e1:9a:57:69:c6:bb:5d:09:1b:2a:43:e6:e8:35:
         0c:ad:27:2f:29:b0:2f:d2:6c:aa:5e:bb:27:ce:10:b2:7b:ee:
         68:68:d7:f8:03:d9:13:4c:da:56:f7:b5:38:7d:e4:9c:dd:91:
         d5:06:0a:93:3b:99:8d:1e:2f:dc:4b:b1:b5:19:76:f2:d2:59:
         9d:30:7b:fc:10:71:44:0c:57:6d:08:ec:8b:2e:bf:8a:bd:bc:
         ac:d5:7f:11:eb:10:12:31:99:82:08:26:1e:b1:72:88:a0:b5:
         54:01:f8:ac:d5:28:a9:83:18:fb:7d:d9:38:61:49:99:5d:9a:
         a1:10:2a:cf:56:62:0d:e6:6e:1c:eb:a5:29:1f:8a:62:cb:57:
         4f:bc:b5:23:f5:ea:b8:41:0e:23:20:76:97:a6:3a:4d:30:c1:
         e7:6a:f0:46:90:8e:bd:5e:2a:39:45:57:a7:41:96:f2:43:dd:
         2b:0a:ce:7e
-----BEGIN CERTIFICATE-----
MIIDvTCCAqWgAwIBAgIJAKHAQXmVVUFUMA0GCSqGSIb3DQEBCwUAMFAxCzAJBgNV
BAYTAkpQMRYwFAYDVQQKDA1FeGFtcGxlLCBJbmMuMRUwEwYDVQQLDAxFeGFtcGxl
IFVuaXQxEjAQBgNVBAMMCU15Q29tcGFueTAeFw0xODA3MzAxNDAyMDhaFw0yODA3
MjcxNDAyMDhaMFYxCzAJBgNVBAYTAkpQMRYwFAYDVQQKDA1FeGFtcGxlLCBJbmMu
MRUwEwYDVQQLDAxFeGFtcGxlIFVuaXQxGDAWBgNVBAMMD015Q29tcGFueVNlcnZl
cjCCASIwDQYJKoZIhvcNAQEBBQADggEPADCCAQoCggEBANInRiDG5h1rZXgq0ce+
COX6tOOKfGGgQot536NUxA6mKjOp67qhFTy2hs7BrHv7cd5V8JUmc78caUIZimyz
LHGQSy8TC5H630PfXe8J8qVph5/3tUPEKmBB0KiMYfrMArH8PrDadH3JHuO12AN9
YkpoJgpynN2f4h+XXj9dZqODHKzgfigtRh0tz8utJwSVFPRCxbgVkrZschTM7VJ1
b2YBy2K59cYQrzHYOdhk2BMql4w0wYPwPyAabF3FA8m781O45xKl8JT4GbKPiK5B
zv8ZC8zI/WvTERnPpoY/1fvtOKLan3EN48CUd4xTfyzqufTtG8xoU4RNEVHwIVE5
vb8CAwEAAaOBkzCBkDAMBgNVHRMBAf8EAjAAMB0GA1UdJQQWMBQGCCsGAQUFBwMC
BggrBgEFBQcDATAOBgNVHQ8BAf8EBAMCBaAwEQYJYIZIAYb4QgEBBAQDAgZAMB0G
A1UdDgQWBBQnp6t3Ior7/FNdzDHmY+zNVsScATAfBgNVHSMEGDAWgBQtF/6mpFS4
Kt1xDV5t573+Vr/80jANBgkqhkiG9w0BAQsFAAOCAQEASv4tyDNVjC26JjT254N+
1eJ9+gJ5CQ1LnpDfZ6OZtTSxAQOhdimcYnKrZNM2/+skV+fwP+v8jKVWSqF3eHIm
KgJsUuUuygFVmggcG+GaV2nGu10JGypD5ug1DK0nLymwL9Jsql67J84QsnvuaGjX
+APZE0zaVve1OH3knN2R1QYKkzuZjR4v3EuxtRl28tJZnTB7/BBxRAxXbQjsiy6/
ir28rNV/EesQEjGZgggmHrFyiKC1VAH4rNUoqYMY+33ZOGFJmV2aoRAqz1ZiDeZu
HOulKR+KYstXT7y1I/XquEEOIyB2l6Y6TTDB52rwRpCOvV4qOUVXp0GW8kPdKwrO
fg==
-----END CERTIFICATE-----
